target datalayout = "e-m:e-p270:32:32-p271:32:32-p272:64:64-i64:64-i128:128-f80:128-n8:16:32:64-S128"
target triple = "x86_64-pc-linux-gnu"

@.str = private unnamed_addr constant [57 x i8] c"../openssl/providers/implementations/macs/siphash_prov.c\00", align 1

; Function Attrs: nounwind uwtable
define internal ptr @siphash_dup(ptr noundef %0) #0 {
  %2 = alloca ptr, align 8
  %3 = alloca ptr, align 8
  %4 = alloca ptr, align 8
  %5 = alloca ptr, align 8
  %6 = alloca i32, align 4
  store ptr %0, ptr %3, align 8, !tbaa !3
  call void @llvm.lifetime.start.p0(i64 8, ptr %4) #5
  %7 = load ptr, ptr %3, align 8, !tbaa !3
  store ptr %7, ptr %4, align 8, !tbaa !7
  call void @llvm.lifetime.start.p0(i64 8, ptr %5) #5
  %8 = call i32 @ossl_prov_is_running()
  %9 = icmp ne i32 %8, 0
  br i1 %9, label %11, label %10

10:                                               ; preds = %1
  store ptr null, ptr %2, align 8
  store i32 1, ptr %6, align 4
  br label %20

11:                                               ; preds = %1
  %12 = call noalias ptr @CRYPTO_malloc(i64 noundef 144, ptr noundef @.str, i32 noundef 80)
  store ptr %12, ptr %5, align 8, !tbaa !7
  %13 = load ptr, ptr %5, align 8, !tbaa !7
  %14 = icmp eq ptr %13, null
  br i1 %14, label %15, label %16

15:                                               ; preds = %11
  store ptr null, ptr %2, align 8
  store i32 1, ptr %6, align 4
  br label %20

16:                                               ; preds = %11
  %17 = load ptr, ptr %5, align 8, !tbaa !7
  %18 = load ptr, ptr %4, align 8, !tbaa !7
  call void @llvm.memcpy.p0.p0.i64(ptr align 8 %17, ptr align 8 %18, i64 144, i1 false), !tbaa.struct !14
  %19 = load ptr, ptr %5, align 8, !tbaa !7
  store ptr %19, ptr %2, align 8
  store i32 1, ptr %6, align 4
  br label %20

20:                                               ; preds = %16, %15, %10
  call void @llvm.lifetime.end.p0(i64 8, ptr %5) #5
  call void @llvm.lifetime.end.p0(i64 8, ptr %4) #5
  %21 = load ptr, ptr %2, align 8
  ret ptr %21
}